target datalayout = "e-m:e-p270:32:32-p271:32:32-p272:64:64-i64:64-i128:128-f80:128-n8:16:32:64-S128"
target triple = "x86_64-pc-linux-gnu"

%struct.BuildAccumulator = type { ptr, i64, ptr, i32, ptr, %struct.RBTreeIterator }
%struct.RBTreeIterator = type { ptr, ptr, ptr, i8 }
%struct.GinEntryAccumulator = type { %struct.RBTNode, i64, i8, i16, i8, ptr, i32, i32 }
%struct.RBTNode = type { i8, ptr, ptr, ptr }
%struct.ItemPointerData = type { %struct.BlockIdData, i16 }
%struct.BlockIdData = type { i16, i16 }

@.str = private unnamed_addr constant [25 x i8] c"posting list is too long\00", align 1
@.str.1 = private unnamed_addr constant [31 x i8] c"Reduce \22maintenance_work_mem\22.\00", align 1
@.str.2 = private unnamed_addr constant [10 x i8] c"ginbulk.c\00", align 1
@__func__.ginCombineData = private unnamed_addr constant [15 x i8] c"ginCombineData\00", align 1

; Function Attrs: inlinehint nounwind uwtable
define internal i32 @BlockIdGetBlockNumber(ptr noundef %0) #4 {
  %2 = alloca ptr, align 8
  store ptr %0, ptr %2, align 8
  %3 = load ptr, ptr %2, align 8
  %4 = getelementptr inbounds nuw %struct.BlockIdData, ptr %3, i32 0, i32 0
  %5 = load i16, ptr %4, align 2
  %6 = zext i16 %5 to i32
  %7 = shl i32 %6, 16
  %8 = load ptr, ptr %2, align 8
  %9 = getelementptr inbounds nuw %struct.BlockIdData, ptr %8, i32 0, i32 1
  %10 = load i16, ptr %9, align 2
  %11 = zext i16 %10 to i32
  %12 = or i32 %7, %11
  ret i32 %12
}

; Function Attrs: inlinehint nounwind uwtable
define internal i32 @pg_cmp_u64(i64 noundef %0, i64 noundef %1) #4 {
  %3 = alloca i64, align 8
  %4 = alloca i64, align 8
  store i64 %0, ptr %3, align 8
  store i64 %1, ptr %4, align 8
  %5 = load i64, ptr %3, align 8
  %6 = load i64, ptr %4, align 8
  %7 = icmp ugt i64 %5, %6
  %8 = zext i1 %7 to i32
  %9 = load i64, ptr %3, align 8
  %10 = load i64, ptr %4, align 8
  %11 = icmp ult i64 %9, %10
  %12 = zext i1 %11 to i32
  %13 = sub i32 %8, %12
  ret i32 %13
}

; Function Attrs: inlinehint nounwind uwtable
define internal zeroext i16 @ItemPointerGetOffsetNumberNoCheck(ptr noundef %0) #4 {
  %2 = alloca ptr, align 8
  store ptr %0, ptr %2, align 8
  %3 = load ptr, ptr %2, align 8
  %4 = getelementptr inbounds nuw %struct.ItemPointerData, ptr %3, i32 0, i32 1
  %5 = load i16, ptr %4, align 2
  ret i16 %5
}

; Function Attrs: inlinehint nounwind uwtable
define internal i32 @ItemPointerGetBlockNumberNoCheck(ptr noundef %0) #4 {
  %2 = alloca ptr, align 8
  store ptr %0, ptr %2, align 8
  %3 = load ptr, ptr %2, align 8
  %4 = getelementptr inbounds nuw %struct.ItemPointerData, ptr %3, i32 0, i32 0
  %5 = call i32 @BlockIdGetBlockNumber(ptr noundef %4)
  ret i32 %5
}

; Function Attrs: inlinehint nounwind uwtable
define internal i32 @ginCompareItemPointers(ptr noundef %0, ptr noundef %1) #4 {
  %3 = alloca ptr, align 8
  %4 = alloca ptr, align 8
  %5 = alloca i64, align 8
  %6 = alloca i64, align 8
  store ptr %0, ptr %3, align 8
  store ptr %1, ptr %4, align 8
  call void @llvm.lifetime.start.p0(i64 8, ptr %5) #6
  %7 = load ptr, ptr %3, align 8
  %8 = call i32 @ItemPointerGetBlockNumberNoCheck(ptr noundef %7)
  %9 = zext i32 %8 to i64
  %10 = shl i64 %9, 32
  %11 = load ptr, ptr %3, align 8
  %12 = call zeroext i16 @ItemPointerGetOffsetNumberNoCheck(ptr noundef %11)
  %13 = zext i16 %12 to i64
  %14 = or i64 %10, %13
  store i64 %14, ptr %5, align 8
  call void @llvm.lifetime.start.p0(i64 8, ptr %6) #6
  %15 = load ptr, ptr %4, align 8
  %16 = call i32 @ItemPointerGetBlockNumberNoCheck(ptr noundef %15)
  %17 = zext i32 %16 to i64
  %18 = shl i64 %17, 32
  %19 = load ptr, ptr %4, align 8
  %20 = call zeroext i16 @ItemPointerGetOffsetNumberNoCheck(ptr noundef %19)
  %21 = zext i16 %20 to i64
  %22 = or i64 %18, %21
  store i64 %22, ptr %6, align 8
  %23 = load i64, ptr %5, align 8
  %24 = load i64, ptr %6, align 8
  %25 = call i32 @pg_cmp_u64(i64 noundef %23, i64 noundef %24)
  call void @llvm.lifetime.end.p0(i64 8, ptr %6) #6
  call void @llvm.lifetime.end.p0(i64 8, ptr %5) #6
  ret i32 %25
}

; Function Attrs: nounwind uwtable
define internal void @ginCombineData(ptr noundef %0, ptr noundef %1, ptr noundef %2) #0 {
  %4 = alloca ptr, align 8
  %5 = alloca ptr, align 8
  %6 = alloca ptr, align 8
  %7 = alloca ptr, align 8
  %8 = alloca ptr, align 8
  %9 = alloca ptr, align 8
  %10 = alloca i32, align 4
  store ptr %0, ptr %4, align 8
  store ptr %1, ptr %5, align 8
  store ptr %2, ptr %6, align 8
  call void @llvm.lifetime.start.p0(i64 8, ptr %7) #6
  %11 = load ptr, ptr %4, align 8
  store ptr %11, ptr %7, align 8
  call void @llvm.lifetime.start.p0(i64 8, ptr %8) #6
  %12 = load ptr, ptr %5, align 8
  store ptr %12, ptr %8, align 8
  call void @llvm.lifetime.start.p0(i64 8, ptr %9) #6
  %13 = load ptr, ptr %6, align 8
  store ptr %13, ptr %9, align 8
  %14 = load ptr, ptr %7, align 8
  %15 = getelementptr inbounds nuw %struct.GinEntryAccumulator, ptr %14, i32 0, i32 7
  %16 = load i32, ptr %15, align 4
  %17 = load ptr, ptr %7, align 8
  %18 = getelementptr inbounds nuw %struct.GinEntryAccumulator, ptr %17, i32 0, i32 6
  %19 = load i32, ptr %18, align 8
  %20 = icmp uge i32 %16, %19
  br i1 %20, label %21, label %71

21:                                               ; preds = %3
  %22 = load ptr, ptr %7, align 8
  %23 = getelementptr inbounds nuw %struct.GinEntryAccumulator, ptr %22, i32 0, i32 6
  %24 = load i32, ptr %23, align 8
  %25 = icmp ugt i32 %24, 2147483647
  br i1 %25, label %26, label %39

26:                                               ; preds = %21
  br label %27

27:                                               ; preds = %26
  br i1 true, label %28, label %30

28:                                               ; preds = %27
  %29 = call zeroext i1 @errstart_cold(i32 noundef 21, ptr noundef null) #7
  br i1 %29, label %32, label %36

30:                                               ; preds = %27
  %31 = call zeroext i1 @errstart(i32 noundef 21, ptr noundef null)
  br i1 %31, label %32, label %36

32:                                               ; preds = %30, %28
  %33 = call i32 @errcode(i32 noundef 261)
  %34 = call i32 (ptr, ...) @errmsg(ptr noundef @.str)
  %35 = call i32 (ptr, ...) @errhint(ptr noundef @.str.1)
  call void @errfinish(ptr noundef @.str.2, i32 noundef 45, ptr noundef @__func__.ginCombineData)
  br label %36

36:                                               ; preds = %32, %30, %28
  unreachable

37:                                               ; No predecessors!
  br label %38

38:                                               ; preds = %37
  br label %39

39:                                               ; preds = %38, %21
  %40 = load ptr, ptr %7, align 8
  %41 = getelementptr inbounds nuw %struct.GinEntryAccumulator, ptr %40, i32 0, i32 5
  %42 = load ptr, ptr %41, align 8
  %43 = call i64 @GetMemoryChunkSpace(ptr noundef %42)
  %44 = load ptr, ptr %9, align 8
  %45 = getelementptr inbounds nuw %struct.BuildAccumulator, ptr %44, i32 0, i32 1
  %46 = load i64, ptr %45, align 8
  %47 = sub i64 %46, %43
  store i64 %47, ptr %45, align 8
  %48 = load ptr, ptr %7, align 8
  %49 = getelementptr inbounds nuw %struct.GinEntryAccumulator, ptr %48, i32 0, i32 6
  %50 = load i32, ptr %49, align 8
  %51 = mul i32 %50, 2
  store i32 %51, ptr %49, align 8
  %52 = load ptr, ptr %7, align 8
  %53 = getelementptr inbounds nuw %struct.GinEntryAccumulator, ptr %52, i32 0, i32 5
  %54 = load ptr, ptr %53, align 8
  %55 = load ptr, ptr %7, align 8
  %56 = getelementptr inbounds nuw %struct.GinEntryAccumulator, ptr %55, i32 0, i32 6
  %57 = load i32, ptr %56, align 8
  %58 = zext i32 %57 to i64
  %59 = mul i64 6, %58
  %60 = call ptr @repalloc_huge(ptr noundef %54, i64 noundef %59)
  %61 = load ptr, ptr %7, align 8
  %62 = getelementptr inbounds nuw %struct.GinEntryAccumulator, ptr %61, i32 0, i32 5
  store ptr %60, ptr %62, align 8
  %63 = load ptr, ptr %7, align 8
  %64 = getelementptr inbounds nuw %struct.GinEntryAccumulator, ptr %63, i32 0, i32 5
  %65 = load ptr, ptr %64, align 8
  %66 = call i64 @GetMemoryChunkSpace(ptr noundef %65)
  %67 = load ptr, ptr %9, align 8
  %68 = getelementptr inbounds nuw %struct.BuildAccumulator, ptr %67, i32 0, i32 1
  %69 = load i64, ptr %68, align 8
  %70 = add i64 %69, %66
  store i64 %70, ptr %68, align 8
  br label %71

71:                                               ; preds = %39, %3
  %72 = load ptr, ptr %7, align 8
  %73 = getelementptr inbounds nuw %struct.GinEntryAccumulator, ptr %72, i32 0, i32 4
  %74 = load i8, ptr %73, align 4, !range !4, !noundef !5
  %75 = trunc i8 %74 to i1
  %76 = zext i1 %75 to i32
  %77 = icmp eq i32 %76, 0
  br i1 %77, label %78, label %98

78:                                               ; preds = %71
  call void @llvm.lifetime.start.p0(i64 4, ptr %10) #6
  %79 = load ptr, ptr %7, align 8
  %80 = getelementptr inbounds nuw %struct.GinEntryAccumulator, ptr %79, i32 0, i32 5
  %81 = load ptr, ptr %80, align 8
  %82 = load ptr, ptr %7, align 8
  %83 = getelementptr inbounds nuw %struct.GinEntryAccumulator, ptr %82, i32 0, i32 7
  %84 = load i32, ptr %83, align 4
  %85 = zext i32 %84 to i64
  %86 = getelementptr inbounds nuw %struct.ItemPointerData, ptr %81, i64 %85
  %87 = getelementptr inbounds %struct.ItemPointerData, ptr %86, i64 -1
  %88 = load ptr, ptr %8, align 8
  %89 = getelementptr inbounds nuw %struct.GinEntryAccumulator, ptr %88, i32 0, i32 5
  %90 = load ptr, ptr %89, align 8
  %91 = call i32 @ginCompareItemPointers(ptr noundef %87, ptr noundef %90)
  store i32 %91, ptr %10, align 4
  %92 = load i32, ptr %10, align 4
  %93 = icmp sgt i32 %92, 0
  br i1 %93, label %94, label %97

94:                                               ; preds = %78
  %95 = load ptr, ptr %7, align 8
  %96 = getelementptr inbounds nuw %struct.GinEntryAccumulator, ptr %95, i32 0, i32 4
  store i8 1, ptr %96, align 4
  br label %97

97:                                               ; preds = %94, %78
  call void @llvm.lifetime.end.p0(i64 4, ptr %10) #6
  br label %98

98:                                               ; preds = %97, %71
  %99 = load ptr, ptr %7, align 8
  %100 = getelementptr inbounds nuw %struct.GinEntryAccumulator, ptr %99, i32 0, i32 5
  %101 = load ptr, ptr %100, align 8
  %102 = load ptr, ptr %7, align 8
  %103 = getelementptr inbounds nuw %struct.GinEntryAccumulator, ptr %102, i32 0, i32 7
  %104 = load i32, ptr %103, align 4
  %105 = zext i32 %104 to i64
  %106 = getelementptr inbounds nuw %struct.ItemPointerData, ptr %101, i64 %105
  %107 = load ptr, ptr %8, align 8
  %108 = getelementptr inbounds nuw %struct.GinEntryAccumulator, ptr %107, i32 0, i32 5
  %109 = load ptr, ptr %108, align 8
  %110 = getelementptr inbounds %struct.ItemPointerData, ptr %109, i64 0
  call void @llvm.memcpy.p0.p0.i64(ptr align 2 %106, ptr align 2 %110, i64 6, i1 false)
  %111 = load ptr, ptr %7, align 8
  %112 = getelementptr inbounds nuw %struct.GinEntryAccumulator, ptr %111, i32 0, i32 7
  %113 = load i32, ptr %112, align 4
  %114 = add i32 %113, 1
  store i32 %114, ptr %112, align 4
  call void @llvm.lifetime.end.p0(i64 8, ptr %9) #6
  call void @llvm.lifetime.end.p0(i64 8, ptr %8) #6
  call void @llvm.lifetime.end.p0(i64 8, ptr %7) #6
  ret void
}