; Function Attrs: nounwind uwtable
define internal void @ginCombineData(ptr noundef captures(none) %0, ptr noundef readonly captures(none) %1, ptr noundef captures(none) %2) #0 {
  %4 = getelementptr inbounds nuw i8, ptr %0, i64 60
  %5 = load i32, ptr %4, align 4
  %6 = getelementptr inbounds nuw i8, ptr %0, i64 56
  %7 = load i32, ptr %6, align 8
  %.not = icmp ult i32 %5, %7
  br i1 %.not, label %31, label %8

8:                                                ; preds = %3
  %9 = icmp slt i32 %7, 0
  br i1 %9, label %10, label %15

10:                                               ; preds = %8
  %11 = tail call zeroext i1 @errstart_cold(i32 noundef 21, ptr noundef null) #10
  tail call void @llvm.assume(i1 %11)
  %12 = tail call i32 @errcode(i32 noundef 261) #9
  %13 = tail call i32 (ptr, ...) @errmsg(ptr noundef nonnull @.str) #9
  %14 = tail call i32 (ptr, ...) @errhint(ptr noundef nonnull @.str.1) #9
  tail call void @errfinish(ptr noundef nonnull @.str.2, i32 noundef 45, ptr noundef nonnull @__func__.ginCombineData) #9
  unreachable

15:                                               ; preds = %8
  %16 = getelementptr inbounds nuw i8, ptr %0, i64 48
  %17 = load ptr, ptr %16, align 8
  %18 = tail call i64 @GetMemoryChunkSpace(ptr noundef %17) #9
  %19 = getelementptr inbounds nuw i8, ptr %2, i64 8
  %20 = load i64, ptr %19, align 8
  %21 = sub i64 %20, %18
  store i64 %21, ptr %19, align 8
  %22 = load i32, ptr %6, align 8
  %23 = shl i32 %22, 1
  store i32 %23, ptr %6, align 8
  %24 = load ptr, ptr %16, align 8
  %25 = zext i32 %23 to i64
  %26 = mul nuw nsw i64 %25, 6
  %27 = tail call ptr @repalloc_huge(ptr noundef %24, i64 noundef %26) #9
  store ptr %27, ptr %16, align 8
  %28 = tail call i64 @GetMemoryChunkSpace(ptr noundef %27) #9
  %29 = load i64, ptr %19, align 8
  %30 = add i64 %29, %28
  store i64 %30, ptr %19, align 8
  br label %31

31:                                               ; preds = %15, %3
  %32 = getelementptr inbounds nuw i8, ptr %0, i64 44
  %33 = load i8, ptr %32, align 4, !range !4, !noundef !5
  %34 = icmp eq i8 %33, 0
  %35 = getelementptr inbounds nuw i8, ptr %0, i64 48
  %36 = load ptr, ptr %35, align 8
  %37 = load i32, ptr %4, align 4
  %38 = zext i32 %37 to i64
  br i1 %34, label %39, label %._crit_edge

39:                                               ; preds = %31
  %40 = getelementptr inbounds nuw %struct.ItemPointerData, ptr %36, i64 %38
  %41 = getelementptr inbounds i8, ptr %40, i64 -6
  %42 = getelementptr inbounds nuw i8, ptr %1, i64 48
  %43 = load ptr, ptr %42, align 8
  %.val.i = load i16, ptr %41, align 2
  %44 = getelementptr i8, ptr %40, i64 -4
  %.val5.i = load i16, ptr %44, align 2
  %45 = zext i16 %.val.i to i64
  %46 = zext i16 %.val5.i to i64
  %47 = shl nuw i64 %45, 48
  %48 = shl nuw nsw i64 %46, 32
  %49 = or disjoint i64 %48, %47
  %50 = getelementptr i8, ptr %40, i64 -2
  %.val8.i = load i16, ptr %50, align 2
  %51 = zext i16 %.val8.i to i64
  %52 = or disjoint i64 %49, %51
  %.val6.i = load i16, ptr %43, align 2
  %53 = getelementptr i8, ptr %43, i64 2
  %.val7.i = load i16, ptr %53, align 2
  %54 = zext i16 %.val6.i to i64
  %55 = zext i16 %.val7.i to i64
  %56 = shl nuw i64 %54, 48
  %57 = shl nuw nsw i64 %55, 32
  %58 = or disjoint i64 %57, %56
  %59 = getelementptr i8, ptr %43, i64 4
  %.val9.i = load i16, ptr %59, align 2
  %60 = zext i16 %.val9.i to i64
  %61 = or disjoint i64 %58, %60
  %62 = icmp ugt i64 %52, %61
  br i1 %62, label %63, label %._crit_edge

63:                                               ; preds = %39
  store i8 1, ptr %32, align 4
  br label %._crit_edge

._crit_edge:                                      ; preds = %31, %39, %63
  %64 = getelementptr inbounds nuw %struct.ItemPointerData, ptr %36, i64 %38
  %65 = getelementptr inbounds nuw i8, ptr %1, i64 48
  %66 = load ptr, ptr %65, align 8
  tail call void @llvm.memcpy.p0.p0.i64(ptr noundef nonnull align 2 dereferenceable(6) %64, ptr noundef nonnull align 2 dereferenceable(6) %66, i64 6, i1 false)
  %67 = load i32, ptr %4, align 4
  %68 = add i32 %67, 1
  store i32 %68, ptr %4, align 4
  ret void
}